target datalayout = "e-m:e-p270:32:32-p271:32:32-p272:64:64-i64:64-i128:128-f80:128-n8:16:32:64-S128"
target triple = "x86_64-pc-linux-gnu"

%"struct.std::__detail::_Hash_node_base" = type { ptr }
%"struct.std::__detail::_Prime_rehash_policy" = type { float, i64 }
%"class.open3d::visualization::VisualizerWithEditing" = type <{ %"class.open3d::visualization::Visualizer", %"class.std::shared_ptr.98", %"class.std::shared_ptr.101", i32, [4 x i8], %"class.std::shared_ptr.104", %"class.std::shared_ptr.107", %"class.std::shared_ptr", %"class.std::shared_ptr.110", %"class.std::shared_ptr.113", double, i8, [7 x i8], %"class.std::__cxx11::basic_string", i32, [4 x i8] }>
%"class.open3d::visualization::Visualizer" = type { ptr, ptr, %"class.std::__cxx11::basic_string", %"class.std::shared_ptr.16", %"class.Eigen::Matrix", %"class.Eigen::Matrix", %"class.std::function", %"class.std::function", %"struct.open3d::visualization::Visualizer::MouseControl", i8, i8, i32, i32, i32, i32, %"class.std::unique_ptr", %"class.std::unique_ptr.23", %"class.std::unordered_set", %"class.std::unordered_set.50", %"class.std::vector", %"class.std::vector.73", %"class.std::unordered_map.78", %"class.std::shared_ptr.92", %"class.std::shared_ptr.95" }
%"class.std::shared_ptr.16" = type { %"class.std::__shared_ptr.17" }
%"class.std::__shared_ptr.17" = type { ptr, %"class.std::__shared_count" }
%"class.std::__shared_count" = type { ptr }
%"class.Eigen::Matrix" = type { %"class.Eigen::PlainObjectBase" }
%"class.Eigen::PlainObjectBase" = type { %"class.Eigen::DenseStorage" }
%"class.Eigen::DenseStorage" = type { %"struct.Eigen::internal::plain_array" }
%"struct.Eigen::internal::plain_array" = type { [2 x i32] }
%"class.std::function" = type { %"class.std::_Function_base", ptr }
%"class.std::_Function_base" = type { %"union.std::_Any_data", ptr }
%"union.std::_Any_data" = type { %"union.std::_Nocopy_types" }
%"union.std::_Nocopy_types" = type { { i64, i64 } }
%"struct.open3d::visualization::Visualizer::MouseControl" = type { i8, i8, i8, i8, i8, i8, double, double }
%"class.std::unique_ptr" = type { %"struct.std::__uniq_ptr_data" }
%"struct.std::__uniq_ptr_data" = type { %"class.std::__uniq_ptr_impl" }
%"class.std::__uniq_ptr_impl" = type { %"class.std::tuple" }
%"class.std::tuple" = type { %"struct.std::_Tuple_impl" }
%"struct.std::_Tuple_impl" = type { %"struct.std::_Head_base.22" }
%"struct.std::_Head_base.22" = type { ptr }
%"class.std::unique_ptr.23" = type { %"struct.std::__uniq_ptr_data.24" }
%"struct.std::__uniq_ptr_data.24" = type { %"class.std::__uniq_ptr_impl.25" }
%"class.std::__uniq_ptr_impl.25" = type { %"class.std::tuple.26" }
%"class.std::tuple.26" = type { %"struct.std::_Tuple_impl.27" }
%"struct.std::_Tuple_impl.27" = type { %"struct.std::_Head_base.30" }
%"struct.std::_Head_base.30" = type { ptr }
%"class.std::unordered_set" = type { %"class.std::_Hashtable.31" }
%"class.std::_Hashtable.31" = type { ptr, i64, %"struct.std::__detail::_Hash_node_base", i64, %"struct.std::__detail::_Prime_rehash_policy", ptr }
%"class.std::unordered_set.50" = type { %"class.std::_Hashtable.51" }
%"class.std::_Hashtable.51" = type { ptr, i64, %"struct.std::__detail::_Hash_node_base", i64, %"struct.std::__detail::_Prime_rehash_policy", ptr }
%"class.std::vector" = type { %"struct.std::_Vector_base" }
%"struct.std::_Vector_base" = type { %"struct.std::_Vector_base<std::shared_ptr<const open3d::geometry::Geometry>, std::allocator<std::shared_ptr<const open3d::geometry::Geometry>>>::_Vector_impl" }
%"struct.std::_Vector_base<std::shared_ptr<const open3d::geometry::Geometry>, std::allocator<std::shared_ptr<const open3d::geometry::Geometry>>>::_Vector_impl" = type { %"struct.std::_Vector_base<std::shared_ptr<const open3d::geometry::Geometry>, std::allocator<std::shared_ptr<const open3d::geometry::Geometry>>>::_Vector_impl_data" }
%"struct.std::_Vector_base<std::shared_ptr<const open3d::geometry::Geometry>, std::allocator<std::shared_ptr<const open3d::geometry::Geometry>>>::_Vector_impl_data" = type { ptr, ptr, ptr }
%"class.std::vector.73" = type { %"struct.std::_Vector_base.74" }
%"struct.std::_Vector_base.74" = type { %"struct.std::_Vector_base<std::shared_ptr<open3d::visualization::glsl::GeometryRenderer>, std::allocator<std::shared_ptr<open3d::visualization::glsl::GeometryRenderer>>>::_Vector_impl" }
%"struct.std::_Vector_base<std::shared_ptr<open3d::visualization::glsl::GeometryRenderer>, std::allocator<std::shared_ptr<open3d::visualization::glsl::GeometryRenderer>>>::_Vector_impl" = type { %"struct.std::_Vector_base<std::shared_ptr<open3d::visualization::glsl::GeometryRenderer>, std::allocator<std::shared_ptr<open3d::visualization::glsl::GeometryRenderer>>>::_Vector_impl_data" }
%"struct.std::_Vector_base<std::shared_ptr<open3d::visualization::glsl::GeometryRenderer>, std::allocator<std::shared_ptr<open3d::visualization::glsl::GeometryRenderer>>>::_Vector_impl_data" = type { ptr, ptr, ptr }
%"class.std::unordered_map.78" = type { %"class.std::_Hashtable.79" }
%"class.std::_Hashtable.79" = type { ptr, i64, %"struct.std::__detail::_Hash_node_base", i64, %"struct.std::__detail::_Prime_rehash_policy", ptr }
%"class.std::shared_ptr.92" = type { %"class.std::__shared_ptr.93" }
%"class.std::__shared_ptr.93" = type { ptr, %"class.std::__shared_count" }
%"class.std::shared_ptr.95" = type { %"class.std::__shared_ptr.96" }
%"class.std::__shared_ptr.96" = type { ptr, %"class.std::__shared_count" }
%"class.std::shared_ptr.98" = type { %"class.std::__shared_ptr.99" }
%"class.std::__shared_ptr.99" = type { ptr, %"class.std::__shared_count" }
%"class.std::shared_ptr.101" = type { %"class.std::__shared_ptr.102" }
%"class.std::__shared_ptr.102" = type { ptr, %"class.std::__shared_count" }
%"class.std::shared_ptr.104" = type { %"class.std::__shared_ptr.105" }
%"class.std::__shared_ptr.105" = type { ptr, %"class.std::__shared_count" }
%"class.std::shared_ptr.107" = type { %"class.std::__shared_ptr.108" }
%"class.std::__shared_ptr.108" = type { ptr, %"class.std::__shared_count" }
%"class.std::shared_ptr" = type { %"class.std::__shared_ptr" }
%"class.std::__shared_ptr" = type { ptr, %"class.std::__shared_count" }
%"class.std::shared_ptr.110" = type { %"class.std::__shared_ptr.111" }
%"class.std::__shared_ptr.111" = type { ptr, %"class.std::__shared_count" }
%"class.std::shared_ptr.113" = type { %"class.std::__shared_ptr.114" }
%"class.std::__shared_ptr.114" = type { ptr, %"class.std::__shared_count" }
%"class.std::__cxx11::basic_string" = type { %"struct.std::__cxx11::basic_string<char>::_Alloc_hider", i64, %union.anon }
%"struct.std::__cxx11::basic_string<char>::_Alloc_hider" = type { ptr }
%union.anon = type { i64, [8 x i8] }

; Function Attrs: mustprogress nounwind ssp uwtable
define linkonce_odr noundef ptr @_ZNKSt12__shared_ptrIN6open3d13visualization4glsl24SelectionPolygonRendererELN9__gnu_cxx12_Lock_policyE2EE3getEv(ptr noundef nonnull align 8 dereferenceable(16) %0) #0 comdat align 2 {
  %2 = alloca ptr, align 8
  store ptr %0, ptr %2, align 8, !tbaa !2036
  %3 = load ptr, ptr %2, align 8
  %4 = getelementptr inbounds nuw %"class.std::__shared_ptr.102", ptr %3, i32 0, i32 0
  %5 = load ptr, ptr %4, align 8, !tbaa !2075
  ret ptr %5
}

; Function Attrs: mustprogress nounwind ssp uwtable
define linkonce_odr noundef ptr @_ZNKSt12__shared_ptrIN6open3d13visualization16SelectionPolygonELN9__gnu_cxx12_Lock_policyE2EE3getEv(ptr noundef nonnull align 8 dereferenceable(16) %0) #0 comdat align 2 {
  %2 = alloca ptr, align 8
  store ptr %0, ptr %2, align 8, !tbaa !2032
  %3 = load ptr, ptr %2, align 8
  %4 = getelementptr inbounds nuw %"class.std::__shared_ptr.99", ptr %3, i32 0, i32 0
  %5 = load ptr, ptr %4, align 8, !tbaa !2056
  ret ptr %5
}

; Function Attrs: mustprogress nounwind ssp uwtable
define linkonce_odr noundef ptr @_ZNKSt19__shared_ptr_accessIN6open3d13visualization4glsl24SelectionPolygonRendererELN9__gnu_cxx12_Lock_policyE2ELb0ELb0EE6_M_getEv(ptr noundef nonnull align 1 dereferenceable(1) %0) #0 comdat align 2 {
  %2 = alloca ptr, align 8
  store ptr %0, ptr %2, align 8, !tbaa !2038
  %3 = load ptr, ptr %2, align 8
  %4 = call noundef ptr @_ZNKSt12__shared_ptrIN6open3d13visualization4glsl24SelectionPolygonRendererELN9__gnu_cxx12_Lock_policyE2EE3getEv(ptr noundef nonnull align 8 dereferenceable(16) %3) #8
  ret ptr %4
}

; Function Attrs: mustprogress nounwind ssp uwtable
define linkonce_odr noundef ptr @_ZNKSt19__shared_ptr_accessIN6open3d13visualization16SelectionPolygonELN9__gnu_cxx12_Lock_policyE2ELb0ELb0EE6_M_getEv(ptr noundef nonnull align 1 dereferenceable(1) %0) #0 comdat align 2 {
  %2 = alloca ptr, align 8
  store ptr %0, ptr %2, align 8, !tbaa !2436
  %3 = load ptr, ptr %2, align 8
  %4 = call noundef ptr @_ZNKSt12__shared_ptrIN6open3d13visualization16SelectionPolygonELN9__gnu_cxx12_Lock_policyE2EE3getEv(ptr noundef nonnull align 8 dereferenceable(16) %3) #8
  ret ptr %4
}

; Function Attrs: mustprogress nounwind ssp uwtable
define linkonce_odr noundef ptr @_ZNKSt19__shared_ptr_accessIN6open3d13visualization4glsl24SelectionPolygonRendererELN9__gnu_cxx12_Lock_policyE2ELb0ELb0EEptEv(ptr noundef nonnull align 1 dereferenceable(1) %0) #0 comdat align 2 {
  %2 = alloca ptr, align 8
  store ptr %0, ptr %2, align 8, !tbaa !2038
  %3 = load ptr, ptr %2, align 8
  %4 = call noundef ptr @_ZNKSt19__shared_ptr_accessIN6open3d13visualization4glsl24SelectionPolygonRendererELN9__gnu_cxx12_Lock_policyE2ELb0ELb0EE6_M_getEv(ptr noundef nonnull align 1 dereferenceable(1) %3) #8
  ret ptr %4
}

; Function Attrs: mustprogress nounwind ssp uwtable
define linkonce_odr noundef zeroext i1 @_ZNKSt12__shared_ptrIN6open3d13visualization4glsl24SelectionPolygonRendererELN9__gnu_cxx12_Lock_policyE2EEcvbEv(ptr noundef nonnull align 8 dereferenceable(16) %0) #0 comdat align 2 {
  %2 = alloca ptr, align 8
  store ptr %0, ptr %2, align 8, !tbaa !2036
  %3 = load ptr, ptr %2, align 8
  %4 = getelementptr inbounds nuw %"class.std::__shared_ptr.102", ptr %3, i32 0, i32 0
  %5 = load ptr, ptr %4, align 8, !tbaa !2075
  %6 = icmp ne ptr %5, null
  ret i1 %6
}

; Function Attrs: mustprogress nounwind ssp uwtable
define linkonce_odr noundef ptr @_ZNKSt19__shared_ptr_accessIN6open3d13visualization16SelectionPolygonELN9__gnu_cxx12_Lock_policyE2ELb0ELb0EEptEv(ptr noundef nonnull align 1 dereferenceable(1) %0) #0 comdat align 2 {
  %2 = alloca ptr, align 8
  store ptr %0, ptr %2, align 8, !tbaa !2436
  %3 = load ptr, ptr %2, align 8
  %4 = call noundef ptr @_ZNKSt19__shared_ptr_accessIN6open3d13visualization16SelectionPolygonELN9__gnu_cxx12_Lock_policyE2ELb0ELb0EE6_M_getEv(ptr noundef nonnull align 1 dereferenceable(1) %3) #8
  ret ptr %4
}

; Function Attrs: mustprogress nounwind ssp uwtable
define linkonce_odr noundef zeroext i1 @_ZNKSt12__shared_ptrIN6open3d13visualization16SelectionPolygonELN9__gnu_cxx12_Lock_policyE2EEcvbEv(ptr noundef nonnull align 8 dereferenceable(16) %0) #0 comdat align 2 {
  %2 = alloca ptr, align 8
  store ptr %0, ptr %2, align 8, !tbaa !2032
  %3 = load ptr, ptr %2, align 8
  %4 = getelementptr inbounds nuw %"class.std::__shared_ptr.99", ptr %3, i32 0, i32 0
  %5 = load ptr, ptr %4, align 8, !tbaa !2056
  %6 = icmp ne ptr %5, null
  ret i1 %6
}

; Function Attrs: mustprogress ssp uwtable
define void @_ZN6open3d13visualization21VisualizerWithEditing26InvalidateSelectionPolygonEv(ptr noundef nonnull align 8 dereferenceable(628) %0) #1 align 2 {
  %2 = alloca ptr, align 8
  store ptr %0, ptr %2, align 8, !tbaa !4
  %3 = load ptr, ptr %2, align 8
  %4 = getelementptr inbounds nuw %"class.open3d::visualization::VisualizerWithEditing", ptr %3, i32 0, i32 1
  %5 = call noundef zeroext i1 @_ZNKSt12__shared_ptrIN6open3d13visualization16SelectionPolygonELN9__gnu_cxx12_Lock_policyE2EEcvbEv(ptr noundef nonnull align 8 dereferenceable(16) %4) #8
  br i1 %5, label %6, label %13

6:                                                ; preds = %1
  %7 = getelementptr inbounds nuw %"class.open3d::visualization::VisualizerWithEditing", ptr %3, i32 0, i32 1
  %8 = call noundef ptr @_ZNKSt19__shared_ptr_accessIN6open3d13visualization16SelectionPolygonELN9__gnu_cxx12_Lock_policyE2ELb0ELb0EEptEv(ptr noundef nonnull align 1 dereferenceable(1) %7) #8
  %9 = load ptr, ptr %8, align 8, !tbaa !9
  %10 = getelementptr inbounds ptr, ptr %9, i64 2
  %11 = load ptr, ptr %10, align 8
  %12 = call noundef nonnull align 8 dereferenceable(172) ptr %11(ptr noundef nonnull align 8 dereferenceable(172) %8)
  br label %13

13:                                               ; preds = %6, %1
  %14 = getelementptr inbounds nuw %"class.open3d::visualization::VisualizerWithEditing", ptr %3, i32 0, i32 2
  %15 = call noundef zeroext i1 @_ZNKSt12__shared_ptrIN6open3d13visualization4glsl24SelectionPolygonRendererELN9__gnu_cxx12_Lock_policyE2EEcvbEv(ptr noundef nonnull align 8 dereferenceable(16) %14) #8
  br i1 %15, label %16, label %23

16:                                               ; preds = %13
  %17 = getelementptr inbounds nuw %"class.open3d::visualization::VisualizerWithEditing", ptr %3, i32 0, i32 2
  %18 = call noundef ptr @_ZNKSt19__shared_ptr_accessIN6open3d13visualization4glsl24SelectionPolygonRendererELN9__gnu_cxx12_Lock_policyE2ELb0ELb0EEptEv(ptr noundef nonnull align 1 dereferenceable(1) %17) #8
  %19 = load ptr, ptr %18, align 8, !tbaa !9
  %20 = getelementptr inbounds ptr, ptr %19, i64 4
  %21 = load ptr, ptr %20, align 8
  %22 = call noundef zeroext i1 %21(ptr noundef nonnull align 8 dereferenceable(240) %18)
  br label %23

23:                                               ; preds = %16, %13
  %24 = getelementptr inbounds nuw %"class.open3d::visualization::VisualizerWithEditing", ptr %3, i32 0, i32 3
  store i32 0, ptr %24, align 8, !tbaa !86
  ret void
}

; Function Attrs: mustprogress ssp uwtable
define void @_ZN6open3d13visualization21VisualizerWithEditing20WindowResizeCallbackEP10GLFWwindowii(ptr noundef nonnull align 8 dereferenceable(628) %0, ptr noundef %1, i32 noundef %2, i32 noundef %3) unnamed_addr #1 align 2 {
  %5 = alloca ptr, align 8
  %6 = alloca ptr, align 8
  %7 = alloca i32, align 4
  %8 = alloca i32, align 4
  store ptr %0, ptr %5, align 8, !tbaa !4
  store ptr %1, ptr %6, align 8, !tbaa !83
  store i32 %2, ptr %7, align 4, !tbaa !84
  store i32 %3, ptr %8, align 4, !tbaa !84
  %9 = load ptr, ptr %5, align 8
  call void @_ZN6open3d13visualization21VisualizerWithEditing26InvalidateSelectionPolygonEv(ptr noundef nonnull align 8 dereferenceable(628) %9)
  %10 = load ptr, ptr %6, align 8, !tbaa !83
  %11 = load i32, ptr %7, align 4, !tbaa !84
  %12 = load i32, ptr %8, align 4, !tbaa !84
  call void @_ZN6open3d13visualization10Visualizer20WindowResizeCallbackEP10GLFWwindowii(ptr noundef nonnull align 8 dereferenceable(456) %9, ptr noundef %10, i32 noundef %11, i32 noundef %12)
  ret void
}