; Function Attrs: mustprogress ssp uwtable
define void @_ZN6open3d13visualization21VisualizerWithEditing20WindowResizeCallbackEP10GLFWwindowii(ptr noundef nonnull align 8 dereferenceable(628) initializes((488, 492)) %0, ptr noundef %1, i32 noundef %2, i32 noundef %3) unnamed_addr #1 align 2 {
  %5 = getelementptr inbounds nuw i8, ptr %0, i64 456
  %6 = load ptr, ptr %5, align 8, !tbaa !150
  %.not.i = icmp eq ptr %6, null
  br i1 %.not.i, label %12, label %7

7:                                                ; preds = %4
  %8 = load ptr, ptr %6, align 8, !tbaa !4
  %9 = getelementptr inbounds nuw i8, ptr %8, i64 16
  %10 = load ptr, ptr %9, align 8
  %11 = tail call noundef nonnull align 8 dereferenceable(172) ptr %10(ptr noundef nonnull align 8 dereferenceable(172) %6)
  br label %12

12:                                               ; preds = %7, %4
  %13 = getelementptr inbounds nuw i8, ptr %0, i64 472
  %14 = load ptr, ptr %13, align 8, !tbaa !148
  %.not1.i = icmp eq ptr %14, null
  br i1 %.not1.i, label %_ZN6open3d13visualization21VisualizerWithEditing26InvalidateSelectionPolygonEv.exit, label %15

15:                                               ; preds = %12
  %16 = load ptr, ptr %14, align 8, !tbaa !4
  %17 = getelementptr inbounds nuw i8, ptr %16, i64 32
  %18 = load ptr, ptr %17, align 8
  %19 = tail call noundef zeroext i1 %18(ptr noundef nonnull align 8 dereferenceable(240) %14)
  br label %_ZN6open3d13visualization21VisualizerWithEditing26InvalidateSelectionPolygonEv.exit

_ZN6open3d13visualization21VisualizerWithEditing26InvalidateSelectionPolygonEv.exit: ; preds = %12, %15
  %20 = getelementptr inbounds nuw i8, ptr %0, i64 488
  store i32 0, ptr %20, align 8, !tbaa !202
  tail call void @_ZN6open3d13visualization10Visualizer20WindowResizeCallbackEP10GLFWwindowii(ptr noundef nonnull align 8 dereferenceable(456) %0, ptr noundef %1, i32 noundef %2, i32 noundef %3)
  ret void
}